; Function Attrs: mustprogress uwtable
define internal noundef double @"_ZNSt17_Function_handlerIFdvEZNK8QuantLib23AnalyticPTDHestonEngine9calculateEvE3$_0E9_M_invokeERKSt9_Any_data"(ptr nocapture noundef nonnull readonly align 8 dereferenceable(16) %__functor) #8 align 2 {
entry:
  %__functor.val = load ptr, ptr %__functor, align 8, !tbaa !3
  %0 = load double, ptr %__functor.val, align 8, !tbaa !195
  %1 = getelementptr inbounds nuw i8, ptr %__functor.val, i64 8
  %2 = load double, ptr %1, align 8, !tbaa !197
  %3 = getelementptr inbounds nuw i8, ptr %__functor.val, i64 16
  %4 = load double, ptr %3, align 8, !tbaa !198
  %5 = getelementptr inbounds nuw i8, ptr %__functor.val, i64 24
  %6 = load double, ptr %5, align 8, !tbaa !199
  %call.i.i.i = tail call noundef double @_ZN8QuantLib20AnalyticHestonEngine11Integration33andersenPiterbargIntegrationLimitEdddd(double noundef %0, double noundef %2, double noundef %4, double noundef %6)
  ret double %call.i.i.i
}